; ModuleID = '44/907.c'
source_filename = "44/907.c"
target datalayout = "e-m:e-p270:32:32-p271:32:32-p272:64:64-i64:64-f80:128-n8:16:32:64-S128"
target triple = "x86_64-pc-linux-gnu"

@.str = private unnamed_addr constant [3 x i8] c"%d\00", align 1
@.str.1 = private unnamed_addr constant [4 x i8] c"%d\0A\00", align 1

; Function Attrs: noinline nounwind uwtable
define dso_local i32 @reverse(i32 %0) #0 {
  %2 = alloca i32, align 4
  %3 = alloca i32, align 4
  %4 = alloca i32, align 4
  %5 = alloca [10 x i32], align 16
  %6 = alloca [10 x i32], align 16
  %7 = alloca i32, align 4
  %8 = alloca i32, align 4
  %9 = alloca i32, align 4
  store i32 %0, i32* %3, align 4
  store i32 0, i32* %9, align 4
  %10 = load i32, i32* %3, align 4
  %11 = icmp sgt i32 %10, 0
  br i1 %11, label %12, label %78

12:                                               ; preds = %1
  %13 = load i32, i32* %3, align 4
  %14 = sitofp i32 %13 to double
  %15 = call double @log10(double %14) #3
  %16 = fadd double %15, 1.000000e+00
  %17 = fptosi double %16 to i32
  store i32 %17, i32* %4, align 4
  store i32 0, i32* %7, align 4
  br label %18

18:                                               ; preds = %51, %12
  %19 = load i32, i32* %7, align 4
  %20 = load i32, i32* %4, align 4
  %21 = icmp slt i32 %19, %20
  br i1 %21, label %22, label %54

22:                                               ; preds = %18
  %23 = load i32, i32* %3, align 4
  %24 = load i32, i32* %4, align 4
  %25 = load i32, i32* %7, align 4
  %26 = sub nsw i32 %24, %25
  %27 = sub nsw i32 %26, 1
  %28 = sitofp i32 %27 to double
  %29 = call double @pow(double 1.000000e+01, double %28) #3
  %30 = fptosi double %29 to i32
  %31 = sdiv i32 %23, %30
  %32 = load i32, i32* %7, align 4
  %33 = sext i32 %32 to i64
  %34 = getelementptr inbounds [10 x i32], [10 x i32]* %5, i64 0, i64 %33
  store i32 %31, i32* %34, align 4
  %35 = load i32, i32* %3, align 4
  %36 = load i32, i32* %4, align 4
  %37 = load i32, i32* %7, align 4
  %38 = sub nsw i32 %36, %37
  %39 = sub nsw i32 %38, 1
  %40 = sitofp i32 %39 to double
  %41 = call double @pow(double 1.000000e+01, double %40) #3
  %42 = fptosi double %41 to i32
  %43 = srem i32 %35, %42
  %44 = load i32, i32* %7, align 4
  %45 = sext i32 %44 to i64
  %46 = getelementptr inbounds [10 x i32], [10 x i32]* %6, i64 0, i64 %45
  store i32 %43, i32* %46, align 4
  %47 = load i32, i32* %7, align 4
  %48 = sext i32 %47 to i64
  %49 = getelementptr inbounds [10 x i32], [10 x i32]* %6, i64 0, i64 %48
  %50 = load i32, i32* %49, align 4
  store i32 %50, i32* %3, align 4
  br label %51

51:                                               ; preds = %22
  %52 = load i32, i32* %7, align 4
  %53 = add nsw i32 %52, 1
  store i32 %53, i32* %7, align 4
  br label %18

54:                                               ; preds = %18
  store i32 0, i32* %7, align 4
  br label %55

55:                                               ; preds = %73, %54
  %56 = load i32, i32* %7, align 4
  %57 = load i32, i32* %4, align 4
  %58 = icmp slt i32 %56, %57
  br i1 %58, label %59, label %76

59:                                               ; preds = %55
  %60 = load i32, i32* %7, align 4
  %61 = sext i32 %60 to i64
  %62 = getelementptr inbounds [10 x i32], [10 x i32]* %5, i64 0, i64 %61
  %63 = load i32, i32* %62, align 4
  %64 = sitofp i32 %63 to double
  %65 = load i32, i32* %7, align 4
  %66 = sitofp i32 %65 to double
  %67 = call double @pow(double 1.000000e+01, double %66) #3
  %68 = fmul double %64, %67
  %69 = fptosi double %68 to i32
  store i32 %69, i32* %8, align 4
  %70 = load i32, i32* %9, align 4
  %71 = load i32, i32* %8, align 4
  %72 = add nsw i32 %70, %71
  store i32 %72, i32* %9, align 4
  br label %73

73:                                               ; preds = %59
  %74 = load i32, i32* %7, align 4
  %75 = add nsw i32 %74, 1
  store i32 %75, i32* %7, align 4
  br label %55

76:                                               ; preds = %55
  %77 = load i32, i32* %9, align 4
  store i32 %77, i32* %2, align 4
  br label %154

78:                                               ; preds = %1
  %79 = load i32, i32* %3, align 4
  %80 = icmp slt i32 %79, 0
  br i1 %80, label %81, label %150

81:                                               ; preds = %78
  %82 = load i32, i32* %3, align 4
  %83 = sub nsw i32 0, %82
  store i32 %83, i32* %3, align 4
  %84 = load i32, i32* %3, align 4
  %85 = sitofp i32 %84 to double
  %86 = call double @log10(double %85) #3
  %87 = fadd double %86, 1.000000e+00
  %88 = fptosi double %87 to i32
  store i32 %88, i32* %4, align 4
  store i32 0, i32* %7, align 4
  br label %89

89:                                               ; preds = %122, %81
  %90 = load i32, i32* %7, align 4
  %91 = load i32, i32* %4, align 4
  %92 = icmp slt i32 %90, %91
  br i1 %92, label %93, label %125

93:                                               ; preds = %89
  %94 = load i32, i32* %3, align 4
  %95 = load i32, i32* %4, align 4
  %96 = load i32, i32* %7, align 4
  %97 = sub nsw i32 %95, %96
  %98 = sub nsw i32 %97, 1
  %99 = sitofp i32 %98 to double
  %100 = call double @pow(double 1.000000e+01, double %99) #3
  %101 = fptosi double %100 to i32
  %102 = sdiv i32 %94, %101
  %103 = load i32, i32* %7, align 4
  %104 = sext i32 %103 to i64
  %105 = getelementptr inbounds [10 x i32], [10 x i32]* %5, i64 0, i64 %104
  store i32 %102, i32* %105, align 4
  %106 = load i32, i32* %3, align 4
  %107 = load i32, i32* %4, align 4
  %108 = load i32, i32* %7, align 4
  %109 = sub nsw i32 %107, %108
  %110 = sub nsw i32 %109, 1
  %111 = sitofp i32 %110 to double
  %112 = call double @pow(double 1.000000e+01, double %111) #3
  %113 = fptosi double %112 to i32
  %114 = srem i32 %106, %113
  %115 = load i32, i32* %7, align 4
  %116 = sext i32 %115 to i64
  %117 = getelementptr inbounds [10 x i32], [10 x i32]* %6, i64 0, i64 %116
  store i32 %114, i32* %117, align 4
  %118 = load i32, i32* %7, align 4
  %119 = sext i32 %118 to i64
  %120 = getelementptr inbounds [10 x i32], [10 x i32]* %6, i64 0, i64 %119
  %121 = load i32, i32* %120, align 4
  store i32 %121, i32* %3, align 4
  br label %122

122:                                              ; preds = %93
  %123 = load i32, i32* %7, align 4
  %124 = add nsw i32 %123, 1
  store i32 %124, i32* %7, align 4
  br label %89

125:                                              ; preds = %89
  store i32 0, i32* %7, align 4
  br label %126

126:                                              ; preds = %144, %125
  %127 = load i32, i32* %7, align 4
  %128 = load i32, i32* %4, align 4
  %129 = icmp slt i32 %127, %128
  br i1 %129, label %130, label %147

130:                                              ; preds = %126
  %131 = load i32, i32* %7, align 4
  %132 = sext i32 %131 to i64
  %133 = getelementptr inbounds [10 x i32], [10 x i32]* %5, i64 0, i64 %132
  %134 = load i32, i32* %133, align 4
  %135 = sitofp i32 %134 to double
  %136 = load i32, i32* %7, align 4
  %137 = sitofp i32 %136 to double
  %138 = call double @pow(double 1.000000e+01, double %137) #3
  %139 = fmul double %135, %138
  %140 = fptosi double %139 to i32
  store i32 %140, i32* %8, align 4
  %141 = load i32, i32* %9, align 4
  %142 = load i32, i32* %8, align 4
  %143 = add nsw i32 %141, %142
  store i32 %143, i32* %9, align 4
  br label %144

144:                                              ; preds = %130
  %145 = load i32, i32* %7, align 4
  %146 = add nsw i32 %145, 1
  store i32 %146, i32* %7, align 4
  br label %126

147:                                              ; preds = %126
  %148 = load i32, i32* %9, align 4
  %149 = sub nsw i32 0, %148
  store i32 %149, i32* %2, align 4
  br label %154

150:                                              ; preds = %78
  %151 = load i32, i32* %3, align 4
  %152 = icmp eq i32 %151, 0
  br i1 %152, label %153, label %154

153:                                              ; preds = %150
  store i32 0, i32* %2, align 4
  br label %154

154:                                              ; preds = %76, %147, %153, %150
  %155 = load i32, i32* %2, align 4
  ret i32 %155
}

; Function Attrs: nounwind
declare dso_local double @log10(double) #1

; Function Attrs: nounwind
declare dso_local double @pow(double, double) #1

; Function Attrs: noinline nounwind uwtable
define dso_local void @main() #0 {
  %1 = alloca i32, align 4
  %2 = alloca [6 x i32], align 16
  store i32 0, i32* %1, align 4
  br label %3

3:                                                ; preds = %11, %0
  %4 = load i32, i32* %1, align 4
  %5 = icmp slt i32 %4, 6
  br i1 %5, label %6, label %14

6:                                                ; preds = %3
  %7 = load i32, i32* %1, align 4
  %8 = sext i32 %7 to i64
  %9 = getelementptr inbounds [6 x i32], [6 x i32]* %2, i64 0, i64 %8
  %10 = call i32 (i8*, ...) @__isoc99_scanf(i8* getelementptr inbounds ([3 x i8], [3 x i8]* @.str, i64 0, i64 0), i32* %9)
  br label %11

11:                                               ; preds = %6
  %12 = load i32, i32* %1, align 4
  %13 = add nsw i32 %12, 1
  store i32 %13, i32* %1, align 4
  br label %3

14:                                               ; preds = %3
  store i32 0, i32* %1, align 4
  br label %15

15:                                               ; preds = %25, %14
  %16 = load i32, i32* %1, align 4
  %17 = icmp slt i32 %16, 6
  br i1 %17, label %18, label %28

18:                                               ; preds = %15
  %19 = load i32, i32* %1, align 4
  %20 = sext i32 %19 to i64
  %21 = getelementptr inbounds [6 x i32], [6 x i32]* %2, i64 0, i64 %20
  %22 = load i32, i32* %21, align 4
  %23 = call i32 @reverse(i32 %22)
  %24 = call i32 (i8*, ...) @printf(i8* getelementptr inbounds ([4 x i8], [4 x i8]* @.str.1, i64 0, i64 0), i32 %23)
  br label %25

25:                                               ; preds = %18
  %26 = load i32, i32* %1, align 4
  %27 = add nsw i32 %26, 1
  store i32 %27, i32* %1, align 4
  br label %15

28:                                               ; preds = %15
  ret void
}

declare dso_local i32 @__isoc99_scanf(i8*, ...) #2

declare dso_local i32 @printf(i8*, ...) #2


!llvm.module.flags = !{!0}
!llvm.ident = !{!1}

!0 = !{i32 1, !"wchar_size", i32 4}
!1 = !{!"clang version 10.0.0-4ubuntu1 "}
